target datalayout = "e-m:e-p270:32:32-p271:32:32-p272:64:64-i64:64-i128:128-f80:128-n8:16:32:64-S128"
target triple = "x86_64-pc-linux-gnu"

%"class.std::__shared_count" = type { ptr }
%"class.pxrInternal_v0_24__pxrReserved__::TfToken" = type { %"class.pxrInternal_v0_24__pxrReserved__::TfPointerAndBits" }
%"class.pxrInternal_v0_24__pxrReserved__::TfPointerAndBits" = type { ptr }
%"class.pxrInternal_v0_24__pxrReserved__::SdfPath" = type { %"struct.pxrInternal_v0_24__pxrReserved__::Sdf_PathNodeHandleImpl", %"struct.pxrInternal_v0_24__pxrReserved__::Sdf_PathNodeHandleImpl.22" }
%"struct.pxrInternal_v0_24__pxrReserved__::Sdf_PathNodeHandleImpl" = type { %"struct.pxrInternal_v0_24__pxrReserved__::Sdf_Pool<pxrInternal_v0_24__pxrReserved__::Sdf_PathPrimTag, 24, 8>::Handle" }
%"struct.pxrInternal_v0_24__pxrReserved__::Sdf_Pool<pxrInternal_v0_24__pxrReserved__::Sdf_PathPrimTag, 24, 8>::Handle" = type { i32 }
%"struct.pxrInternal_v0_24__pxrReserved__::Sdf_PathNodeHandleImpl.22" = type { %"struct.pxrInternal_v0_24__pxrReserved__::Sdf_Pool<pxrInternal_v0_24__pxrReserved__::Sdf_PathPropTag, 24, 8>::Handle" }
%"struct.pxrInternal_v0_24__pxrReserved__::Sdf_Pool<pxrInternal_v0_24__pxrReserved__::Sdf_PathPropTag, 24, 8>::Handle" = type { i32 }
%"struct.std::_Rb_tree_header" = type { %"struct.std::_Rb_tree_node_base", i64 }
%"struct.std::_Rb_tree_node_base" = type { i32, ptr, ptr, ptr }
%"class.pxrInternal_v0_24__pxrReserved__::TfRefPtr" = type { ptr }
%"class.pxrInternal_v0_24__pxrReserved__::UsdImagingPiPrototypePropagatingSceneIndex_Impl::_InstancerObserver" = type { %"class.pxrInternal_v0_24__pxrReserved__::HdSceneIndexObserver", %"class.std::shared_ptr.57", %"class.pxrInternal_v0_24__pxrReserved__::SdfPath", %"class.pxrInternal_v0_24__pxrReserved__::SdfPath", %"class.pxrInternal_v0_24__pxrReserved__::TfRefPtr", %"class.pxrInternal_v0_24__pxrReserved__::TfRefPtr", %"class.std::map.60" }
%"class.pxrInternal_v0_24__pxrReserved__::HdSceneIndexObserver" = type { ptr, %"class.pxrInternal_v0_24__pxrReserved__::TfWeakBase" }
%"class.pxrInternal_v0_24__pxrReserved__::TfWeakBase" = type { %"struct.std::atomic.5" }
%"struct.std::atomic.5" = type { %"struct.std::__atomic_base.6" }
%"struct.std::__atomic_base.6" = type { ptr }
%"class.std::shared_ptr.57" = type { %"class.std::__shared_ptr.58" }
%"class.std::__shared_ptr.58" = type { ptr, %"class.std::__shared_count" }
%"class.std::map.60" = type { %"class.std::_Rb_tree.61" }
%"class.std::_Rb_tree.61" = type { %"struct.std::_Rb_tree<pxrInternal_v0_24__pxrReserved__::SdfPath, std::pair<const pxrInternal_v0_24__pxrReserved__::SdfPath, std::map<pxrInternal_v0_24__pxrReserved__::SdfPath, std::unique_ptr<pxrInternal_v0_24__pxrReserved__::UsdImagingPiPrototypePropagatingSceneIndex_Impl::_InstancerObserver>>>, std::_Select1st<std::pair<const pxrInternal_v0_24__pxrReserved__::SdfPath, std::map<pxrInternal_v0_24__pxrReserved__::SdfPath, std::unique_ptr<pxrInternal_v0_24__pxrReserved__::UsdImagingPiPrototypePropagatingSceneIndex_Impl::_InstancerObserver>>>>, std::less<pxrInternal_v0_24__pxrReserved__::SdfPath>>::_Rb_tree_impl" }
%"struct.std::_Rb_tree<pxrInternal_v0_24__pxrReserved__::SdfPath, std::pair<const pxrInternal_v0_24__pxrReserved__::SdfPath, std::map<pxrInternal_v0_24__pxrReserved__::SdfPath, std::unique_ptr<pxrInternal_v0_24__pxrReserved__::UsdImagingPiPrototypePropagatingSceneIndex_Impl::_InstancerObserver>>>, std::_Select1st<std::pair<const pxrInternal_v0_24__pxrReserved__::SdfPath, std::map<pxrInternal_v0_24__pxrReserved__::SdfPath, std::unique_ptr<pxrInternal_v0_24__pxrReserved__::UsdImagingPiPrototypePropagatingSceneIndex_Impl::_InstancerObserver>>>>, std::less<pxrInternal_v0_24__pxrReserved__::SdfPath>>::_Rb_tree_impl" = type { [8 x i8], %"struct.std::_Rb_tree_header" }
%"class.std::__cxx11::basic_string" = type { %"struct.std::__cxx11::basic_string<char>::_Alloc_hider", i64, %union.anon }
%"struct.std::__cxx11::basic_string<char>::_Alloc_hider" = type { ptr }
%union.anon = type { i64, [8 x i8] }
%"class.pxrInternal_v0_24__pxrReserved__::Tf_HashState" = type <{ i64, i8, [7 x i8] }>

@.str.4 = private unnamed_addr constant [16 x i8] c"ForInstancer%zx\00", align 1

; Function Attrs: mustprogress nounwind uwtable
define linkonce_odr noundef i64 @_ZNK32pxrInternal_v0_24__pxrReserved__12Tf_HashState8_CombineEmm(ptr noundef nonnull align 8 dereferenceable(9) %0, i64 noundef %1, i64 noundef %2) #2 comdat align 2 {
  %4 = alloca ptr, align 8
  %5 = alloca i64, align 8
  %6 = alloca i64, align 8
  store ptr %0, ptr %4, align 8
  store i64 %1, ptr %5, align 8
  store i64 %2, ptr %6, align 8
  %7 = load i64, ptr %6, align 8
  %8 = load i64, ptr %5, align 8
  %9 = add i64 %8, %7
  store i64 %9, ptr %5, align 8
  %10 = load i64, ptr %6, align 8
  %11 = load i64, ptr %5, align 8
  %12 = load i64, ptr %5, align 8
  %13 = add i64 %12, 1
  %14 = mul i64 %11, %13
  %15 = udiv i64 %14, 2
  %16 = add i64 %10, %15
  ret i64 %16
}

; Function Attrs: mustprogress nounwind uwtable
define linkonce_odr void @_ZNK32pxrInternal_v0_24__pxrReserved__15Tf_HashStateAPIINS_12Tf_HashStateEE11_AppendImplEv(ptr noundef nonnull align 1 dereferenceable(1) %0) #2 comdat align 2 {
  %2 = alloca ptr, align 8
  store ptr %0, ptr %2, align 8
  ret void
}

; Function Attrs: mustprogress uwtable
define linkonce_odr void @_ZN32pxrInternal_v0_24__pxrReserved__12Tf_HashState7_AppendIjEENSt9enable_ifIXsr3std11is_integralIT_EE5valueEvE4typeES3_(ptr noundef nonnull align 8 dereferenceable(9) %0, i32 noundef %1) #0 comdat align 2 {
  %3 = alloca ptr, align 8
  %4 = alloca i32, align 4
  store ptr %0, ptr %3, align 8
  store i32 %1, ptr %4, align 4
  %5 = load ptr, ptr %3, align 8
  %6 = getelementptr inbounds nuw %"class.pxrInternal_v0_24__pxrReserved__::Tf_HashState", ptr %5, i32 0, i32 1
  %7 = load i8, ptr %6, align 8
  %8 = trunc i8 %7 to i1
  br i1 %8, label %14, label %9

9:                                                ; preds = %2
  %10 = load i32, ptr %4, align 4
  %11 = zext i32 %10 to i64
  %12 = getelementptr inbounds nuw %"class.pxrInternal_v0_24__pxrReserved__::Tf_HashState", ptr %5, i32 0, i32 0
  store i64 %11, ptr %12, align 8
  %13 = getelementptr inbounds nuw %"class.pxrInternal_v0_24__pxrReserved__::Tf_HashState", ptr %5, i32 0, i32 1
  store i8 1, ptr %13, align 8
  br label %21

14:                                               ; preds = %2
  %15 = getelementptr inbounds nuw %"class.pxrInternal_v0_24__pxrReserved__::Tf_HashState", ptr %5, i32 0, i32 0
  %16 = load i64, ptr %15, align 8
  %17 = load i32, ptr %4, align 4
  %18 = zext i32 %17 to i64
  %19 = call noundef i64 @_ZNK32pxrInternal_v0_24__pxrReserved__12Tf_HashState8_CombineEmm(ptr noundef nonnull align 8 dereferenceable(9) %5, i64 noundef %16, i64 noundef %18)
  %20 = getelementptr inbounds nuw %"class.pxrInternal_v0_24__pxrReserved__::Tf_HashState", ptr %5, i32 0, i32 0
  store i64 %19, ptr %20, align 8
  br label %21

21:                                               ; preds = %14, %9
  ret void
}

; Function Attrs: mustprogress nounwind uwtable
define linkonce_odr noundef nonnull align 8 dereferenceable(9) ptr @_ZN32pxrInternal_v0_24__pxrReserved__15Tf_HashStateAPIINS_12Tf_HashStateEE10_AsDerivedEv(ptr noundef nonnull align 1 dereferenceable(1) %0) #2 comdat align 2 {
  %2 = alloca ptr, align 8
  store ptr %0, ptr %2, align 8
  %3 = load ptr, ptr %2, align 8
  ret ptr %3
}

; Function Attrs: mustprogress uwtable
define linkonce_odr void @_ZN32pxrInternal_v0_24__pxrReserved__15Tf_HashStateAPIINS_12Tf_HashStateEE11_AppendImplIRjJEEEvOT_DpOT0_(ptr noundef nonnull align 1 dereferenceable(1) %0, ptr noundef nonnull align 4 dereferenceable(4) %1) #0 comdat align 2 {
  %3 = alloca ptr, align 8
  %4 = alloca ptr, align 8
  store ptr %0, ptr %3, align 8
  store ptr %1, ptr %4, align 8
  %5 = load ptr, ptr %3, align 8
  %6 = call noundef nonnull align 8 dereferenceable(9) ptr @_ZN32pxrInternal_v0_24__pxrReserved__15Tf_HashStateAPIINS_12Tf_HashStateEE10_AsDerivedEv(ptr noundef nonnull align 1 dereferenceable(1) %5)
  %7 = load ptr, ptr %4, align 8
  %8 = load i32, ptr %7, align 4
  call void @_ZN32pxrInternal_v0_24__pxrReserved__12Tf_HashState7_AppendIjEENSt9enable_ifIXsr3std11is_integralIT_EE5valueEvE4typeES3_(ptr noundef nonnull align 8 dereferenceable(9) %6, i32 noundef %8)
  call void @_ZNK32pxrInternal_v0_24__pxrReserved__15Tf_HashStateAPIINS_12Tf_HashStateEE11_AppendImplEv(ptr noundef nonnull align 1 dereferenceable(1) %5)
  ret void
}

; Function Attrs: mustprogress uwtable
define linkonce_odr void @_ZN32pxrInternal_v0_24__pxrReserved__15Tf_HashStateAPIINS_12Tf_HashStateEE6AppendIJRjEEEvDpOT_(ptr noundef nonnull align 1 dereferenceable(1) %0, ptr noundef nonnull align 4 dereferenceable(4) %1) #0 comdat align 2 {
  %3 = alloca ptr, align 8
  %4 = alloca ptr, align 8
  store ptr %0, ptr %3, align 8
  store ptr %1, ptr %4, align 8
  %5 = load ptr, ptr %3, align 8
  %6 = load ptr, ptr %4, align 8
  call void @_ZN32pxrInternal_v0_24__pxrReserved__15Tf_HashStateAPIINS_12Tf_HashStateEE11_AppendImplIRjJEEEvOT_DpOT0_(ptr noundef nonnull align 1 dereferenceable(1) %5, ptr noundef nonnull align 4 dereferenceable(4) %6)
  ret void
}

; Function Attrs: mustprogress nounwind uwtable
define linkonce_odr noundef i64 @_ZNK32pxrInternal_v0_24__pxrReserved__12Tf_HashState14_SwapByteOrderEm(ptr noundef nonnull align 8 dereferenceable(9) %0, i64 noundef %1) #2 comdat align 2 {
  %3 = alloca ptr, align 8
  %4 = alloca i64, align 8
  store ptr %0, ptr %3, align 8
  store i64 %1, ptr %4, align 8
  %5 = load i64, ptr %4, align 8
  %6 = and i64 %5, -72057594037927936
  %7 = lshr i64 %6, 56
  %8 = load i64, ptr %4, align 8
  %9 = and i64 %8, 71776119061217280
  %10 = lshr i64 %9, 40
  %11 = or i64 %7, %10
  %12 = load i64, ptr %4, align 8
  %13 = and i64 %12, 280375465082880
  %14 = lshr i64 %13, 24
  %15 = or i64 %11, %14
  %16 = load i64, ptr %4, align 8
  %17 = and i64 %16, 1095216660480
  %18 = lshr i64 %17, 8
  %19 = or i64 %15, %18
  %20 = load i64, ptr %4, align 8
  %21 = and i64 %20, 4278190080
  %22 = shl i64 %21, 8
  %23 = or i64 %19, %22
  %24 = load i64, ptr %4, align 8
  %25 = and i64 %24, 16711680
  %26 = shl i64 %25, 24
  %27 = or i64 %23, %26
  %28 = load i64, ptr %4, align 8
  %29 = and i64 %28, 65280
  %30 = shl i64 %29, 40
  %31 = or i64 %27, %30
  %32 = load i64, ptr %4, align 8
  %33 = and i64 %32, 255
  %34 = shl i64 %33, 56
  %35 = or i64 %31, %34
  store i64 %35, ptr %4, align 8
  %36 = load i64, ptr %4, align 8
  ret i64 %36
}

; Function Attrs: mustprogress nounwind uwtable
define linkonce_odr void @_ZN32pxrInternal_v0_24__pxrReserved__6TfHash12_CombineImplINS_12Tf_HashStateEEEvRT_(ptr noundef nonnull align 8 dereferenceable(9) %0) #2 comdat align 2 {
  %2 = alloca ptr, align 8
  store ptr %0, ptr %2, align 8
  ret void
}

; Function Attrs: mustprogress uwtable
define linkonce_odr void @_ZN32pxrInternal_v0_24__pxrReserved__12TfHashAppendINS_12Tf_HashStateEEEvRT_RKNS_7SdfPathE(ptr noundef nonnull align 8 dereferenceable(9) %0, ptr noundef nonnull align 4 dereferenceable(8) %1) #0 comdat {
  %3 = alloca ptr, align 8
  %4 = alloca ptr, align 8
  %5 = alloca i32, align 4
  %6 = alloca i32, align 4
  store ptr %0, ptr %3, align 8
  store ptr %1, ptr %4, align 8
  %7 = load ptr, ptr %4, align 8
  %8 = getelementptr inbounds nuw %"class.pxrInternal_v0_24__pxrReserved__::SdfPath", ptr %7, i32 0, i32 0
  call void @llvm.memcpy.p0.p0.i64(ptr align 4 %5, ptr align 4 %8, i64 4, i1 false)
  %9 = load ptr, ptr %4, align 8
  %10 = getelementptr inbounds nuw %"class.pxrInternal_v0_24__pxrReserved__::SdfPath", ptr %9, i32 0, i32 1
  call void @llvm.memcpy.p0.p0.i64(ptr align 4 %6, ptr align 4 %10, i64 4, i1 false)
  %11 = load ptr, ptr %3, align 8
  call void @_ZN32pxrInternal_v0_24__pxrReserved__15Tf_HashStateAPIINS_12Tf_HashStateEE6AppendIJRjEEEvDpOT_(ptr noundef nonnull align 1 dereferenceable(1) %11, ptr noundef nonnull align 4 dereferenceable(4) %5)
  %12 = load ptr, ptr %3, align 8
  call void @_ZN32pxrInternal_v0_24__pxrReserved__15Tf_HashStateAPIINS_12Tf_HashStateEE6AppendIJRjEEEvDpOT_(ptr noundef nonnull align 1 dereferenceable(1) %12, ptr noundef nonnull align 4 dereferenceable(4) %6)
  ret void
}

; Function Attrs: mustprogress uwtable
define linkonce_odr noundef i64 @_ZNK32pxrInternal_v0_24__pxrReserved__12Tf_HashState8_GetCodeEv(ptr noundef nonnull align 8 dereferenceable(9) %0) #0 comdat align 2 {
  %2 = alloca ptr, align 8
  store ptr %0, ptr %2, align 8
  %3 = load ptr, ptr %2, align 8
  %4 = getelementptr inbounds nuw %"class.pxrInternal_v0_24__pxrReserved__::Tf_HashState", ptr %3, i32 0, i32 0
  %5 = load i64, ptr %4, align 8
  %6 = mul i64 %5, -7046029254386353067
  %7 = call noundef i64 @_ZNK32pxrInternal_v0_24__pxrReserved__12Tf_HashState14_SwapByteOrderEm(ptr noundef nonnull align 8 dereferenceable(9) %3, i64 noundef %6)
  ret i64 %7
}

; Function Attrs: mustprogress nounwind uwtable
define linkonce_odr noundef nonnull align 8 dereferenceable(9) ptr @_ZNK32pxrInternal_v0_24__pxrReserved__15Tf_HashStateAPIINS_12Tf_HashStateEE10_AsDerivedEv(ptr noundef nonnull align 1 dereferenceable(1) %0) #2 comdat align 2 {
  %2 = alloca ptr, align 8
  store ptr %0, ptr %2, align 8
  %3 = load ptr, ptr %2, align 8
  ret ptr %3
}

; Function Attrs: mustprogress uwtable
define linkonce_odr void @_ZN32pxrInternal_v0_24__pxrReserved__6TfHash12_CombineImplINS_12Tf_HashStateERKNS_7SdfPathEJEEEvRT_OT0_DpOT1_(ptr noundef nonnull align 8 dereferenceable(9) %0, ptr noundef nonnull align 4 dereferenceable(8) %1) #0 comdat align 2 {
  %3 = alloca ptr, align 8
  %4 = alloca ptr, align 8
  store ptr %0, ptr %3, align 8
  store ptr %1, ptr %4, align 8
  %5 = load ptr, ptr %3, align 8
  %6 = load ptr, ptr %4, align 8
  call void @_ZN32pxrInternal_v0_24__pxrReserved__11Tf_HashImplINS_12Tf_HashStateERKNS_7SdfPathEEEDTcmcl12TfHashAppendfp_clsr3stdE7forwardIT0_Efp0_EEcvv_EERT_OS5_i(ptr noundef nonnull align 8 dereferenceable(9) %5, ptr noundef nonnull align 4 dereferenceable(8) %6, i32 noundef 0)
  %7 = load ptr, ptr %3, align 8
  call void @_ZN32pxrInternal_v0_24__pxrReserved__6TfHash12_CombineImplINS_12Tf_HashStateEEEvRT_(ptr noundef nonnull align 8 dereferenceable(9) %7)
  ret void
}

; Function Attrs: mustprogress uwtable
define linkonce_odr void @_ZN32pxrInternal_v0_24__pxrReserved__11Tf_HashImplINS_12Tf_HashStateERKNS_7SdfPathEEEDTcmcl12TfHashAppendfp_clsr3stdE7forwardIT0_Efp0_EEcvv_EERT_OS5_i(ptr noundef nonnull align 8 dereferenceable(9) %0, ptr noundef nonnull align 4 dereferenceable(8) %1, i32 noundef %2) #0 comdat {
  %4 = alloca ptr, align 8
  %5 = alloca ptr, align 8
  %6 = alloca i32, align 4
  store ptr %0, ptr %4, align 8
  store ptr %1, ptr %5, align 8
  store i32 %2, ptr %6, align 4
  %7 = load ptr, ptr %4, align 8
  %8 = load ptr, ptr %5, align 8
  call void @_ZN32pxrInternal_v0_24__pxrReserved__12TfHashAppendINS_12Tf_HashStateEEEvRT_RKNS_7SdfPathE(ptr noundef nonnull align 8 dereferenceable(9) %7, ptr noundef nonnull align 4 dereferenceable(8) %8)
  ret void
}

; Function Attrs: mustprogress uwtable
define linkonce_odr noundef i64 @_ZNK32pxrInternal_v0_24__pxrReserved__15Tf_HashStateAPIINS_12Tf_HashStateEE7GetCodeEv(ptr noundef nonnull align 1 dereferenceable(1) %0) #0 comdat align 2 {
  %2 = alloca ptr, align 8
  store ptr %0, ptr %2, align 8
  %3 = load ptr, ptr %2, align 8
  %4 = call noundef nonnull align 8 dereferenceable(9) ptr @_ZNK32pxrInternal_v0_24__pxrReserved__15Tf_HashStateAPIINS_12Tf_HashStateEE10_AsDerivedEv(ptr noundef nonnull align 1 dereferenceable(1) %3)
  %5 = call noundef i64 @_ZNK32pxrInternal_v0_24__pxrReserved__12Tf_HashState8_GetCodeEv(ptr noundef nonnull align 8 dereferenceable(9) %4)
  ret i64 %5
}

; Function Attrs: mustprogress uwtable
define linkonce_odr void @_ZN32pxrInternal_v0_24__pxrReserved__6TfHash12_CombineImplINS_12Tf_HashStateERKNS_7SdfPathEJS5_EEEvRT_OT0_DpOT1_(ptr noundef nonnull align 8 dereferenceable(9) %0, ptr noundef nonnull align 4 dereferenceable(8) %1, ptr noundef nonnull align 4 dereferenceable(8) %2) #0 comdat align 2 {
  %4 = alloca ptr, align 8
  %5 = alloca ptr, align 8
  %6 = alloca ptr, align 8
  store ptr %0, ptr %4, align 8
  store ptr %1, ptr %5, align 8
  store ptr %2, ptr %6, align 8
  %7 = load ptr, ptr %4, align 8
  %8 = load ptr, ptr %5, align 8
  call void @_ZN32pxrInternal_v0_24__pxrReserved__11Tf_HashImplINS_12Tf_HashStateERKNS_7SdfPathEEEDTcmcl12TfHashAppendfp_clsr3stdE7forwardIT0_Efp0_EEcvv_EERT_OS5_i(ptr noundef nonnull align 8 dereferenceable(9) %7, ptr noundef nonnull align 4 dereferenceable(8) %8, i32 noundef 0)
  %9 = load ptr, ptr %4, align 8
  %10 = load ptr, ptr %6, align 8
  call void @_ZN32pxrInternal_v0_24__pxrReserved__6TfHash12_CombineImplINS_12Tf_HashStateERKNS_7SdfPathEJEEEvRT_OT0_DpOT1_(ptr noundef nonnull align 8 dereferenceable(9) %9, ptr noundef nonnull align 4 dereferenceable(8) %10)
  ret void
}

; Function Attrs: mustprogress nounwind uwtable
define linkonce_odr void @_ZN32pxrInternal_v0_24__pxrReserved__12Tf_HashStateC2Ev(ptr noundef nonnull align 8 dereferenceable(9) %0) unnamed_addr #2 comdat align 2 {
  %2 = alloca ptr, align 8
  store ptr %0, ptr %2, align 8
  %3 = load ptr, ptr %2, align 8
  %4 = getelementptr inbounds nuw %"class.pxrInternal_v0_24__pxrReserved__::Tf_HashState", ptr %3, i32 0, i32 0
  store i64 0, ptr %4, align 8
  %5 = getelementptr inbounds nuw %"class.pxrInternal_v0_24__pxrReserved__::Tf_HashState", ptr %3, i32 0, i32 1
  store i8 0, ptr %5, align 8
  ret void
}

; Function Attrs: mustprogress uwtable
define linkonce_odr noundef i64 @_ZN32pxrInternal_v0_24__pxrReserved__6TfHash7CombineIJRKNS_7SdfPathES4_EEEmDpOT_(ptr noundef nonnull align 4 dereferenceable(8) %0, ptr noundef nonnull align 4 dereferenceable(8) %1) #0 comdat align 2 {
  %3 = alloca ptr, align 8
  %4 = alloca ptr, align 8
  %5 = alloca %"class.pxrInternal_v0_24__pxrReserved__::Tf_HashState", align 8
  store ptr %0, ptr %3, align 8
  store ptr %1, ptr %4, align 8
  call void @_ZN32pxrInternal_v0_24__pxrReserved__12Tf_HashStateC2Ev(ptr noundef nonnull align 8 dereferenceable(9) %5) #5
  %6 = load ptr, ptr %3, align 8
  %7 = load ptr, ptr %4, align 8
  call void @_ZN32pxrInternal_v0_24__pxrReserved__6TfHash12_CombineImplINS_12Tf_HashStateERKNS_7SdfPathEJS5_EEEvRT_OT0_DpOT1_(ptr noundef nonnull align 8 dereferenceable(9) %5, ptr noundef nonnull align 4 dereferenceable(8) %6, ptr noundef nonnull align 4 dereferenceable(8) %7)
  %8 = call noundef i64 @_ZNK32pxrInternal_v0_24__pxrReserved__15Tf_HashStateAPIINS_12Tf_HashStateEE7GetCodeEv(ptr noundef nonnull align 1 dereferenceable(1) %5)
  ret i64 %8
}

; Function Attrs: mustprogress uwtable
define void @_ZNK32pxrInternal_v0_24__pxrReserved__47UsdImagingPiPrototypePropagatingSceneIndex_Impl18_InstancerObserver14_InstancerHashERKNS_7SdfPathE(ptr dead_on_unwind noalias writable sret(%"class.pxrInternal_v0_24__pxrReserved__::TfToken") align 8 %0, ptr noundef nonnull align 8 dereferenceable(112) %1, ptr noundef nonnull align 4 dereferenceable(8) %2) #0 align 2 personality ptr @__gxx_personality_v0 {
  %4 = alloca ptr, align 8
  %5 = alloca ptr, align 8
  %6 = alloca ptr, align 8
  %7 = alloca i64, align 8
  %8 = alloca %"class.std::__cxx11::basic_string", align 8
  %9 = alloca ptr, align 8
  %10 = alloca i32, align 4
  store ptr %0, ptr %4, align 8
  store ptr %1, ptr %5, align 8
  store ptr %2, ptr %6, align 8
  %11 = load ptr, ptr %5, align 8
  %12 = load ptr, ptr %6, align 8
  %13 = getelementptr inbounds nuw %"class.pxrInternal_v0_24__pxrReserved__::UsdImagingPiPrototypePropagatingSceneIndex_Impl::_InstancerObserver", ptr %11, i32 0, i32 3
  %14 = call noundef i64 @_ZN32pxrInternal_v0_24__pxrReserved__6TfHash7CombineIJRKNS_7SdfPathES4_EEEmDpOT_(ptr noundef nonnull align 4 dereferenceable(8) %12, ptr noundef nonnull align 4 dereferenceable(8) %13)
  store i64 %14, ptr %7, align 8
  %15 = load i64, ptr %7, align 8
  call void (ptr, ptr, ...) @_ZN32pxrInternal_v0_24__pxrReserved__14TfStringPrintfB5cxx11EPKcz(ptr dead_on_unwind writable sret(%"class.std::__cxx11::basic_string") align 8 %8, ptr noundef @.str.4, i64 noundef %15)
  invoke void @_ZN32pxrInternal_v0_24__pxrReserved__7TfTokenC1ERKNSt7__cxx1112basic_stringIcSt11char_traitsIcESaIcEEE(ptr noundef nonnull align 8 dereferenceable(8) %0, ptr noundef nonnull align 8 dereferenceable(32) %8)
          to label %16 unwind label %17

16:                                               ; preds = %3
  call void @_ZNSt7__cxx1112basic_stringIcSt11char_traitsIcESaIcEED1Ev(ptr noundef nonnull align 8 dereferenceable(32) %8) #5
  ret void

17:                                               ; preds = %3
  %18 = landingpad { ptr, i32 }
          cleanup
  %19 = extractvalue { ptr, i32 } %18, 0
  store ptr %19, ptr %9, align 8
  %20 = extractvalue { ptr, i32 } %18, 1
  store i32 %20, ptr %10, align 4
  call void @_ZNSt7__cxx1112basic_stringIcSt11char_traitsIcESaIcEED1Ev(ptr noundef nonnull align 8 dereferenceable(32) %8) #5
  br label %21

21:                                               ; preds = %17
  %22 = load ptr, ptr %9, align 8
  %23 = load i32, ptr %10, align 4
  %24 = insertvalue { ptr, i32 } poison, ptr %22, 0
  %25 = insertvalue { ptr, i32 } %24, i32 %23, 1
  resume { ptr, i32 } %25
}