; Function Attrs: mustprogress uwtable
define void @_ZNK32pxrInternal_v0_24__pxrReserved__47UsdImagingPiPrototypePropagatingSceneIndex_Impl18_InstancerObserver14_InstancerHashERKNS_7SdfPathE(ptr dead_on_unwind noalias writable sret(%"class.pxrInternal_v0_24__pxrReserved__::TfToken") align 8 %0, ptr nocapture noundef nonnull readonly align 8 dereferenceable(112) %1, ptr nocapture noundef nonnull readonly align 4 dereferenceable(8) %2) local_unnamed_addr #0 align 2 personality ptr @__gxx_personality_v0 {
  %4 = alloca %"class.std::__cxx11::basic_string", align 8
  %5 = getelementptr inbounds nuw i8, ptr %1, i64 40
  %6 = load i32, ptr %2, align 4
  %7 = getelementptr inbounds nuw i8, ptr %2, i64 4
  %8 = load i32, ptr %7, align 4
  %9 = zext i32 %6 to i64
  %10 = zext i32 %8 to i64
  %11 = add nuw nsw i64 %10, %9
  %12 = add nuw nsw i64 %11, 1
  %13 = mul i64 %12, %11
  %14 = lshr i64 %13, 1
  %15 = load i32, ptr %5, align 8
  %16 = getelementptr inbounds i8, ptr %1, i64 44
  %17 = load i32, ptr %16, align 4
  %18 = zext i32 %15 to i64
  %19 = add nuw nsw i64 %18, %10
  %20 = add nuw i64 %19, %14
  %21 = add nuw i64 %20, 1
  %22 = mul i64 %21, %20
  %23 = lshr i64 %22, 1
  %24 = zext i32 %17 to i64
  %25 = add nuw nsw i64 %24, %18
  %26 = add nuw i64 %25, %23
  %27 = add nuw i64 %26, 1
  %28 = mul i64 %27, %26
  %29 = lshr i64 %28, 1
  %30 = add nuw i64 %29, %24
  %31 = mul i64 %30, -7046029254386353067
  %32 = tail call noundef i64 @llvm.bswap.i64(i64 %31)
  call void (ptr, ptr, ...) @_ZN32pxrInternal_v0_24__pxrReserved__14TfStringPrintfB5cxx11EPKcz(ptr dead_on_unwind nonnull writable sret(%"class.std::__cxx11::basic_string") align 8 %4, ptr noundef nonnull @.str.4, i64 noundef %32)
  invoke void @_ZN32pxrInternal_v0_24__pxrReserved__7TfTokenC1ERKNSt7__cxx1112basic_stringIcSt11char_traitsIcESaIcEEE(ptr noundef nonnull align 8 dereferenceable(8) %0, ptr noundef nonnull align 8 dereferenceable(32) %4)
          to label %33 unwind label %34

33:                                               ; preds = %3
  call void @_ZNSt7__cxx1112basic_stringIcSt11char_traitsIcESaIcEED1Ev(ptr noundef nonnull align 8 dereferenceable(32) %4) #23
  ret void

34:                                               ; preds = %3
  %35 = landingpad { ptr, i32 }
          cleanup
  call void @_ZNSt7__cxx1112basic_stringIcSt11char_traitsIcESaIcEED1Ev(ptr noundef nonnull align 8 dereferenceable(32) %4) #23
  resume { ptr, i32 } %35
}